; Function Attrs: mustprogress uwtable
define hidden noundef ptr @pj_gs50(ptr noundef %0) local_unnamed_addr #0 {
  %.not = icmp eq ptr %0, null
  br i1 %.not, label %24, label %2

2:                                                ; preds = %1
  %3 = tail call noalias dereferenceable_or_null(32) ptr @calloc(i64 noundef 1, i64 noundef 32) #6
  %4 = icmp eq ptr %3, null
  br i1 %4, label %5, label %7

5:                                                ; preds = %2
  %6 = tail call noundef ptr @_Z21pj_default_destructorP8PJconstsi(ptr noundef nonnull %0, i32 noundef 4096)
  br label %_Z33pj_projection_specific_setup_gs50P8PJconsts.exit

7:                                                ; preds = %2
  %8 = getelementptr inbounds nuw i8, ptr %0, i64 88
  store ptr %3, ptr %8, align 8, !tbaa !3
  %9 = getelementptr inbounds nuw i8, ptr %3, i64 24
  store i32 9, ptr %9, align 8, !tbaa !36
  %10 = getelementptr inbounds nuw i8, ptr %0, i64 440
  store double 0xC000C152382D7365, ptr %10, align 8, !tbaa !38
  %11 = getelementptr inbounds nuw i8, ptr %0, i64 448
  store double 0x3FE921FB54442D18, ptr %11, align 8, !tbaa !39
  %12 = getelementptr inbounds nuw i8, ptr %0, i64 216
  %13 = load double, ptr %12, align 8, !tbaa !41
  %14 = fcmp une double %13, 0.000000e+00
  %15 = getelementptr inbounds nuw i8, ptr %0, i64 168
  br i1 %14, label %16, label %_ZL14mod_ster_setupP8PJconsts.exit.i

16:                                               ; preds = %7
  store double 6.768660e-03, ptr %12, align 8, !tbaa !41
  %17 = getelementptr inbounds nuw i8, ptr %0, i64 208
  store double 0x3FB50FC4DF8B5B25, ptr %17, align 8, !tbaa !52
  br label %_ZL14mod_ster_setupP8PJconsts.exit.i

_ZL14mod_ster_setupP8PJconsts.exit.i:             ; preds = %7, %16
  %_ZZ33pj_projection_specific_setup_gs50P8PJconstsE3ABs.sink = phi ptr [ @_ZZ33pj_projection_specific_setup_gs50P8PJconstsE3ABe, %16 ], [ @_ZZ33pj_projection_specific_setup_gs50P8PJconstsE3ABs, %7 ]
  %.sink = phi double [ 0x415854B79999999A, %16 ], [ 0x41584DAD40000000, %7 ]
  %.0.i.i = phi double [ 0x3FE9062DD085FA20, %16 ], [ 0x3FE921FB54442D18, %7 ]
  store ptr %_ZZ33pj_projection_specific_setup_gs50P8PJconstsE3ABs.sink, ptr %3, align 8, !tbaa !40
  store double %.sink, ptr %15, align 8, !tbaa !51
  %18 = tail call double @sin(double noundef %.0.i.i) #7, !tbaa !53
  %19 = getelementptr inbounds nuw i8, ptr %3, i64 16
  store double %18, ptr %19, align 8, !tbaa !42
  %20 = tail call double @cos(double noundef %.0.i.i) #7, !tbaa !53
  %21 = getelementptr inbounds nuw i8, ptr %3, i64 8
  store double %20, ptr %21, align 8, !tbaa !43
  %22 = getelementptr inbounds nuw i8, ptr %0, i64 112
  store ptr @_ZL18mod_ster_e_inverse5PJ_XYP8PJconsts, ptr %22, align 8, !tbaa !44
  %23 = getelementptr inbounds nuw i8, ptr %0, i64 104
  store ptr @_ZL18mod_ster_e_forward5PJ_LPP8PJconsts, ptr %23, align 8, !tbaa !45
  br label %_Z33pj_projection_specific_setup_gs50P8PJconsts.exit

24:                                               ; preds = %1
  %25 = tail call noundef ptr @_Z6pj_newv()
  %26 = icmp eq ptr %25, null
  br i1 %26, label %_Z33pj_projection_specific_setup_gs50P8PJconsts.exit, label %27

27:                                               ; preds = %24
  %28 = getelementptr inbounds nuw i8, ptr %25, i64 8
  store ptr @.str.4, ptr %28, align 8, !tbaa !46
  %29 = getelementptr inbounds nuw i8, ptr %25, i64 16
  store ptr @_ZL8des_gs50, ptr %29, align 8, !tbaa !47
  %30 = getelementptr inbounds nuw i8, ptr %25, i64 360
  store i32 1, ptr %30, align 8, !tbaa !48
  %31 = getelementptr inbounds nuw i8, ptr %25, i64 380
  store i32 4, ptr %31, align 4, !tbaa !49
  %32 = getelementptr inbounds nuw i8, ptr %25, i64 384
  store i32 1, ptr %32, align 8, !tbaa !50
  br label %_Z33pj_projection_specific_setup_gs50P8PJconsts.exit

_Z33pj_projection_specific_setup_gs50P8PJconsts.exit: ; preds = %_ZL14mod_ster_setupP8PJconsts.exit.i, %5, %24, %27
  %.0 = phi ptr [ %25, %27 ], [ null, %24 ], [ %6, %5 ], [ %0, %_ZL14mod_ster_setupP8PJconsts.exit.i ]
  ret ptr %.0
}